target datalayout = "e-m:e-p270:32:32-p271:32:32-p272:64:64-i64:64-i128:128-f80:128-n8:16:32:64-S128"
target triple = "x86_64-pc-linux-gnu"

@.str.10 = private unnamed_addr constant [11 x i8] c"ccsds.apid\00", align 1
@proto_register_ccsds.ett = internal global [5 x ptr] [ptr @ett_ccsds_primary_header_flags, ptr @ett_ccsds, ptr @ett_ccsds_primary_header, ptr @ett_ccsds_secondary_header, ptr @ett_ccsds_checkword], align 16
@.str.63 = private unnamed_addr constant [6 x i8] c"CCSDS\00", align 1
@.str.64 = private unnamed_addr constant [6 x i8] c"ccsds\00", align 1
@proto_ccsds = internal global i32 0, align 4
@ccsds_handle = internal global ptr null, align 8
@.str.65 = private unnamed_addr constant [22 x i8] c"global_pref_checkword\00", align 1
@.str.66 = private unnamed_addr constant [34 x i8] c"How to handle the CCSDS checkword\00", align 1
@.str.67 = private unnamed_addr constant [60 x i8] c"Specify how the dissector should handle the CCSDS checkword\00", align 1
@global_dissect_checkword = internal global i32 2, align 4
@.str.68 = private unnamed_addr constant [11 x i8] c"CCSDS apid\00", align 1
@ccsds_dissector_table = internal global ptr null, align 8

; Function Attrs: null_pointer_is_valid sspstrong uwtable
define hidden void @proto_register_ccsds() #0 {
  %1 = alloca ptr, align 8
  %2 = alloca ptr, align 8
  call void @llvm.lifetime.start.p0(i64 8, ptr %1) #4
  call void @llvm.lifetime.start.p0(i64 8, ptr %2) #4
  %3 = call i32 @proto_register_protocol(ptr noundef @.str.63, ptr noundef @.str.63, ptr noundef @.str.64)
  store i32 %3, ptr @proto_ccsds, align 4
  %4 = load i32, ptr @proto_ccsds, align 4
  call void @proto_register_field_array(i32 noundef %4, ptr noundef @proto_register_ccsds.hf, i32 noundef 27)
  call void @proto_register_subtree_array(ptr noundef @proto_register_ccsds.ett, i32 noundef 5)
  %5 = load i32, ptr @proto_ccsds, align 4
  %6 = call ptr @expert_register_protocol(i32 noundef %5)
  store ptr %6, ptr %2, align 8
  %7 = load ptr, ptr %2, align 8
  call void @expert_register_field_array(ptr noundef %7, ptr noundef @proto_register_ccsds.ei, i32 noundef 2)
  %8 = load i32, ptr @proto_ccsds, align 4
  %9 = call ptr @register_dissector(ptr noundef @.str.64, ptr noundef @dissect_ccsds, i32 noundef %8)
  store ptr %9, ptr @ccsds_handle, align 8
  %10 = load i32, ptr @proto_ccsds, align 4
  %11 = call ptr @prefs_register_protocol(i32 noundef %10, ptr noundef null)
  store ptr %11, ptr %1, align 8
  %12 = load ptr, ptr %1, align 8
  call void @prefs_register_enum_preference(ptr noundef %12, ptr noundef @.str.65, ptr noundef @.str.66, ptr noundef @.str.67, ptr noundef @global_dissect_checkword, ptr noundef @dissect_checkword, i1 noundef zeroext false)
  %13 = load i32, ptr @proto_ccsds, align 4
  %14 = call ptr @register_dissector_table(ptr noundef @.str.10, ptr noundef @.str.68, i32 noundef %13, i32 noundef 5, i32 noundef 1)
  store ptr %14, ptr @ccsds_dissector_table, align 8
  call void @llvm.lifetime.end.p0(i64 8, ptr %2) #4
  call void @llvm.lifetime.end.p0(i64 8, ptr %1) #4
  ret void
}