; Function Attrs: null_pointer_is_valid sspstrong uwtable
define hidden void @proto_register_ccsds() local_unnamed_addr #0 {
  %1 = tail call i32 @proto_register_protocol(ptr noundef nonnull @.str.63, ptr noundef nonnull @.str.63, ptr noundef nonnull @.str.64)
  store i32 %1, ptr @proto_ccsds, align 4
  tail call void @proto_register_field_array(i32 noundef %1, ptr noundef nonnull @proto_register_ccsds.hf, i32 noundef 27)
  tail call void @proto_register_subtree_array(ptr noundef nonnull @proto_register_ccsds.ett, i32 noundef 5)
  %2 = load i32, ptr @proto_ccsds, align 4
  %3 = tail call ptr @expert_register_protocol(i32 noundef %2)
  tail call void @expert_register_field_array(ptr noundef %3, ptr noundef nonnull @proto_register_ccsds.ei, i32 noundef 2)
  %4 = load i32, ptr @proto_ccsds, align 4
  %5 = tail call ptr @register_dissector(ptr noundef nonnull @.str.64, ptr noundef nonnull @dissect_ccsds, i32 noundef %4)
  store ptr %5, ptr @ccsds_handle, align 8
  %6 = load i32, ptr @proto_ccsds, align 4
  %7 = tail call ptr @prefs_register_protocol(i32 noundef %6, ptr noundef null)
  tail call void @prefs_register_enum_preference(ptr noundef %7, ptr noundef nonnull @.str.65, ptr noundef nonnull @.str.66, ptr noundef nonnull @.str.67, ptr noundef nonnull @global_dissect_checkword, ptr noundef nonnull @dissect_checkword, i1 noundef zeroext false)
  %8 = load i32, ptr @proto_ccsds, align 4
  %9 = tail call ptr @register_dissector_table(ptr noundef nonnull @.str.10, ptr noundef nonnull @.str.68, i32 noundef %8, i32 noundef 5, i32 noundef 1)
  store ptr %9, ptr @ccsds_dissector_table, align 8
  ret void
}